; Function Attrs: nounwind uwtable
define dso_local range(i32 0, 2) i32 @WPACKET_start_quic_sub_packet(ptr noundef captures(none) %0) local_unnamed_addr #0 {
  %2 = getelementptr inbounds nuw i8, ptr %0, i64 40
  %3 = load ptr, ptr %2, align 8, !tbaa !4
  %.not.i.i = icmp eq ptr %3, null
  br i1 %.not.i.i, label %WPACKET_start_quic_sub_packet_bound.exit, label %4, !prof !24

4:                                                ; preds = %1
  %5 = getelementptr inbounds nuw i8, ptr %0, i64 48
  %6 = load i8, ptr %5, align 8
  %7 = and i8 %6, 1
  %.not21.i.i = icmp eq i8 %7, 0
  br i1 %.not21.i.i, label %8, label %WPACKET_start_quic_sub_packet_bound.exit

8:                                                ; preds = %4
  %9 = tail call noalias ptr @CRYPTO_zalloc(i64 noundef 40, ptr noundef nonnull @.str, i32 noundef 379) #12
  %10 = icmp eq ptr %9, null
  br i1 %10, label %WPACKET_start_quic_sub_packet_bound.exit, label %11

11:                                               ; preds = %8
  %12 = load ptr, ptr %2, align 8, !tbaa !4
  store ptr %12, ptr %9, align 8, !tbaa !25
  store ptr %9, ptr %2, align 8, !tbaa !4
  %13 = getelementptr inbounds nuw i8, ptr %0, i64 24
  %14 = load i64, ptr %13, align 8, !tbaa !16
  %15 = add i64 %14, 4
  %16 = getelementptr inbounds nuw i8, ptr %9, i64 24
  store i64 %15, ptr %16, align 8, !tbaa !27
  %17 = getelementptr inbounds nuw i8, ptr %9, i64 16
  store i64 4, ptr %17, align 8, !tbaa !28
  %18 = getelementptr inbounds nuw i8, ptr %9, i64 8
  store i64 %14, ptr %18, align 8, !tbaa !29
  %19 = getelementptr inbounds nuw i8, ptr %0, i64 32
  %20 = load i64, ptr %19, align 8, !tbaa !15
  %21 = sub i64 %20, %14
  %22 = icmp ult i64 %21, 4
  br i1 %22, label %WPACKET_start_quic_sub_packet_bound.exit, label %23

23:                                               ; preds = %11
  %24 = load ptr, ptr %0, align 8, !tbaa !17
  %.not.i.i2 = icmp eq ptr %24, null
  br i1 %.not.i.i2, label %WPACKET_get_curr.exit.i.i.thread, label %25

25:                                               ; preds = %23
  %26 = load i64, ptr %24, align 8, !tbaa !18
  %27 = sub i64 %26, %14
  %28 = icmp ult i64 %27, 4
  br i1 %28, label %29, label %WPACKET_get_curr.exit.i.i.thread

29:                                               ; preds = %25
  %..i.i = tail call i64 @llvm.umax.i64(i64 %26, i64 4)
  %30 = shl nuw i64 %..i.i, 1
  %spec.store.select.i.i = tail call i64 @llvm.umax.i64(i64 %30, i64 256)
  %.inv.i.i = icmp sgt i64 %..i.i, -1
  %.027.i.i = select i1 %.inv.i.i, i64 %spec.store.select.i.i, i64 -1
  %31 = tail call i64 @BUF_MEM_grow(ptr noundef nonnull %24, i64 noundef %.027.i.i) #12
  %.not41.i.i = icmp eq i64 %31, 0
  br i1 %.not41.i.i, label %WPACKET_start_quic_sub_packet_bound.exit, label %.WPACKET_get_curr.exit.i.i.thread_crit_edge

.WPACKET_get_curr.exit.i.i.thread_crit_edge:      ; preds = %29
  %.pre = load i64, ptr %13, align 8, !tbaa !16
  %.pre5 = load ptr, ptr %2, align 8, !tbaa !4
  %.pre6 = add i64 %.pre, 4
  br label %WPACKET_get_curr.exit.i.i.thread

WPACKET_get_curr.exit.i.i.thread:                 ; preds = %.WPACKET_get_curr.exit.i.i.thread_crit_edge, %25, %23
  %.pre-phi = phi i64 [ %.pre6, %.WPACKET_get_curr.exit.i.i.thread_crit_edge ], [ %15, %25 ], [ %15, %23 ]
  %32 = phi ptr [ %.pre5, %.WPACKET_get_curr.exit.i.i.thread_crit_edge ], [ %9, %25 ], [ %9, %23 ]
  store i64 %.pre-phi, ptr %13, align 8, !tbaa !16
  %33 = getelementptr inbounds nuw i8, ptr %0, i64 16
  %34 = load i64, ptr %33, align 8, !tbaa !22
  %35 = add i64 %34, 4
  store i64 %35, ptr %33, align 8, !tbaa !22
  %36 = getelementptr inbounds nuw i8, ptr %32, i64 32
  %37 = load i32, ptr %36, align 8, !tbaa !30
  %38 = or i32 %37, 4
  store i32 %38, ptr %36, align 8, !tbaa !30
  br label %WPACKET_start_quic_sub_packet_bound.exit

WPACKET_start_quic_sub_packet_bound.exit:         ; preds = %11, %29, %1, %4, %8, %WPACKET_get_curr.exit.i.i.thread
  %.0.i = phi i32 [ 1, %WPACKET_get_curr.exit.i.i.thread ], [ 0, %8 ], [ 0, %4 ], [ 0, %1 ], [ 0, %29 ], [ 0, %11 ]
  ret i32 %.0.i
}